; Function Attrs: nounwind uwtable
define internal ptr @paramspeckwargs_new(ptr noundef %0, ptr noundef %1, ptr noundef %2) #0 {
  %4 = alloca [1 x ptr], align 8
  call void @llvm.lifetime.start.p0(i64 8, ptr nonnull %4) #8
  %5 = getelementptr i8, ptr %1, i64 16
  %.val = load i64, ptr %5, align 8, !tbaa !4
  %6 = icmp eq ptr %2, null
  %7 = icmp eq i64 %.val, 1
  %or.cond3 = select i1 %6, i1 %7, i1 false
  %8 = getelementptr inbounds nuw i8, ptr %1, i64 24
  br i1 %or.cond3, label %.thread, label %9

9:                                                ; preds = %3
  %10 = call ptr @_PyArg_UnpackKeywords(ptr noundef nonnull %8, i64 noundef %.val, ptr noundef %2, ptr noundef null, ptr noundef nonnull @paramspeckwargs_new._parser, i32 noundef 1, i32 noundef 1, i32 noundef 0, i32 noundef 0, ptr noundef nonnull %4) #8
  %.not = icmp eq ptr %10, null
  br i1 %.not, label %paramspeckwargs_new_impl.exit, label %.thread

.thread:                                          ; preds = %3, %9
  %11 = phi ptr [ %10, %9 ], [ %8, %3 ]
  %12 = load ptr, ptr %11, align 8, !tbaa !16
  %13 = call ptr @_PyObject_GC_New(ptr noundef %0) #8
  %14 = icmp eq ptr %13, null
  br i1 %14, label %paramspeckwargs_new_impl.exit, label %15

15:                                               ; preds = %.thread
  %16 = load i32, ptr %12, align 8, !tbaa !27
  %17 = icmp slt i32 %16, 0
  br i1 %17, label %_Py_NewRef.exit.i.i, label %18

18:                                               ; preds = %15
  %19 = add nuw i32 %16, 1
  store i32 %19, ptr %12, align 8, !tbaa !27
  br label %_Py_NewRef.exit.i.i

_Py_NewRef.exit.i.i:                              ; preds = %18, %15
  %20 = getelementptr inbounds nuw i8, ptr %13, i64 16
  store ptr %12, ptr %20, align 8, !tbaa !151
  %21 = getelementptr i8, ptr %13, i64 -16
  %22 = call align 8 ptr @llvm.threadlocal.address.p0(ptr align 8 @_Py_tss_tstate)
  %23 = load ptr, ptr %22, align 8, !tbaa !28
  %24 = getelementptr inbounds nuw i8, ptr %23, i64 16
  %25 = load ptr, ptr %24, align 8, !tbaa !39
  %26 = getelementptr inbounds nuw i8, ptr %25, i64 7424
  %27 = getelementptr inbounds nuw i8, ptr %25, i64 7432
  %28 = load i64, ptr %27, align 8, !tbaa !113
  %29 = inttoptr i64 %28 to ptr
  %30 = ptrtoint ptr %21 to i64
  %31 = load i64, ptr %29, align 8, !tbaa !114
  %32 = and i64 %31, 3
  %33 = or i64 %32, %30
  store i64 %33, ptr %29, align 8, !tbaa !114
  %34 = getelementptr i8, ptr %13, i64 -8
  %35 = load i64, ptr %34, align 8, !tbaa !113
  %36 = and i64 %35, 3
  %37 = or i64 %36, %28
  store i64 %37, ptr %34, align 8, !tbaa !113
  %38 = getelementptr inbounds nuw i8, ptr %25, i64 7632
  %39 = load i32, ptr %38, align 8, !tbaa !115
  %40 = xor i32 %39, 1
  %41 = sext i32 %40 to i64
  %42 = ptrtoint ptr %26 to i64
  %43 = or i64 %41, %42
  store i64 %43, ptr %21, align 8, !tbaa !114
  store i64 %30, ptr %27, align 8, !tbaa !113
  br label %paramspeckwargs_new_impl.exit

paramspeckwargs_new_impl.exit:                    ; preds = %_Py_NewRef.exit.i.i, %.thread, %9
  %.0 = phi ptr [ null, %9 ], [ null, %.thread ], [ %13, %_Py_NewRef.exit.i.i ]
  call void @llvm.lifetime.end.p0(i64 8, ptr nonnull %4) #8
  ret ptr %.0
}